/* al/LiveActor/LiveActor.h */

_ZTVN2al9LiveActorE = 0x003d7974;

_ZN2al9LiveActorC1EPKc = 0x0027fe9c;
_ZN2al9LiveActorC2EPKc = 0x0027fe9c;

_ZNK2al9LiveActor14getNerveKeeperEv = 0x003375f4;
_ZN2al9LiveActor4initERKN2al13ActorInitInfoE = 0x001ebf28;
_ZN2al9LiveActor18initAfterPlacementEv = 0x001ebe64;
_ZN2al9LiveActor6appearEv = 0x0027ff70;
_ZN2al9LiveActor17makeActorAppearedEv = 0x0027ea40;
_ZN2al9LiveActor4killEv = 0x0027ebf0;
_ZN2al9LiveActor13makeActorDeadEv = 0x0027d250;
_ZN2al9LiveActor8movementEv = 0x0026df44;
_ZN2al9LiveActor8calcAnimEv = 0x0025aa34;
_ZN2al9LiveActor4drawEv = 0x0;
_ZN2al9LiveActor12startClippedEv = 0x002795c0;
_ZN2al9LiveActor10endClippedEv = 0x002797f4;
_ZN2al9LiveActor12attackSensorEPNS_9HitSensorES2_ = 0x001ebc60;
_ZN2al9LiveActor10receiveMsgEmPNS_9HitSensorES2_ = 0x001ebc58;
_ZNK2al9LiveActor10getBaseMtxEv = 0x003375dc;
_ZNK2al9LiveActor15getEffectKeeperEv = 0x00337604;
_ZThn4_NK2al9LiveActor15getEffectKeeperEv = 0x003765a8;
_ZNK2al9LiveActor14getAudioKeeperEv = 0x003375fc;
_ZThn8_NK2al9LiveActor14getAudioKeeperEv = 0x00376a44;
_ZThn12_NK2al9LiveActor20getStageSwitchKeeperEv = 0x00375f28;
_ZNK2al9LiveActor20getStageSwitchKeeperEv = 0x00375f28;
_ZThn12_N2al9LiveActor21initStageSwitchKeeperEv = 0x00375e4c;
_ZN2al9LiveActor21initStageSwitchKeeperEv = 0x00375e4c;
_ZN2al9LiveActor7controlEv = 0x001ebf2c;
_ZN2al9LiveActor17calcAndSetBaseMtxEv = 0x0;
_ZN2al9LiveActor14updateColliderEv = 0x001ebcec;
_ZN2al9LiveActor12initColliderEffm = 0x001ebc64;
_ZN2al9LiveActor14initPoseKeeperEPNS_19ActorPoseKeeperBaseE = 0x00244cec;
_ZN2al9LiveActor3v22Ev = 0x0;
_ZN2al9LiveActor3v23Ev = 0x0;
